(dp0
V\u6027\u75c5\u79d1
p1
I4
sV\u8840\u6db2\u79d1
p2
I5
sV\u5987\u79d1
p3
I35
sV\u5185\u5206\u6ccc\u79d1
p4
I13
sV\u5fc3\u8840\u7ba1\u5185\u79d1
p5
I38
sV\u6d88\u5316\u5185\u79d1
p6
I16
sV\u80bf\u7624\u79d1
p7
I10
sV\u8033\u9f3b\u54bd\u5589\u79d1
p8
I17
sV\u98ce\u6e7f\u514d\u75ab\u79d1
p9
I1
sV\u53e3\u8154\u79d1
p10
I31
sV\u4e2d\u533b\u79d1
p11
I27
sV\u80f8\u5916\u79d1
p12
I8
sV\u9aa8\u79d1
p13
I11
sV\u513f\u79d1
p14
I26
sV\u80be\u5185\u79d1
p15
I22
sV\u7537\u79d1
p16
I21
sV\u611f\u67d3\u79d1
p17
I14
sV\u6025\u8bca\u79d1
p18
I3
sV\u5fc3\u7406\u79d1
p19
I2
sV\u6ccc\u5c3f\u5916\u79d1
p20
I23
sV\u810a\u67f1\u5916\u79d1
p21
I6
sV\u547c\u5438\u5185\u79d1
p22
I36
sV\u666e\u5916\u79d1
p23
I9
sV\u8840\u7ba1\u5916\u79d1
p24
I20
sV\u6574\u5f62\u5916\u79d1
p25
I19
sV\u65b0\u751f\u513f\u79d1
p26
I25
sV\u76ae\u80a4\u79d1
p27
I34
sV\u809b\u80a0\u5916\u79d1
p28
I39
sV\u75bc\u75db\u79d1
p29
I18
sV\u70e7\u4f24\u79d1
p30
I37
sV\u4ea7\u79d1
p31
I33
sV\u773c\u79d1
p32
I0
sV\u4e73\u817a\u5916\u79d1
p33
I15
sV\u5eb7\u590d\u79d1
p34
I12
sV\u795e\u7ecf\u5916\u79d1
p35
I7
sV\u666e\u901a\u5185\u79d1
p36
I30
sV\u809d\u80c6\u5916\u79d1
p37
I24
sV\u795e\u7ecf\u5185\u79d1
p38
I32
sV\u5fc3\u8840\u7ba1\u5916\u79d1
p39
I28
sV\u7cbe\u795e\u79d1
p40
I29
s.